; Function Attrs: mustprogress uwtable
define void @_ZN6colvar7dihedPC11apply_forceERK11colvarvalue(ptr noundef nonnull readonly align 8 captures(none) dereferenceable(1656) %0, ptr noundef nonnull align 8 dereferenceable(168) %1) unnamed_addr #2 align 2 personality ptr @__gxx_personality_v0 {
  %3 = alloca %class.colvarvalue, align 8
  %4 = alloca double, align 8
  %5 = getelementptr inbounds nuw i8, ptr %0, i64 1608
  %6 = getelementptr inbounds nuw i8, ptr %0, i64 1616
  %7 = load ptr, ptr %6, align 8, !tbaa !259
  %8 = load ptr, ptr %5, align 8, !tbaa !265
  %.not = icmp eq ptr %7, %8
  br i1 %.not, label %._crit_edge, label %.lr.ph

.lr.ph:                                           ; preds = %2
  %9 = getelementptr inbounds nuw i8, ptr %0, i64 1632
  %10 = getelementptr inbounds nuw i8, ptr %3, i64 144
  %11 = getelementptr inbounds nuw i8, ptr %3, i64 160
  %12 = getelementptr inbounds nuw i8, ptr %3, i64 120
  %13 = getelementptr inbounds nuw i8, ptr %3, i64 136
  %14 = getelementptr inbounds nuw i8, ptr %3, i64 96
  %15 = getelementptr inbounds nuw i8, ptr %3, i64 112
  %16 = getelementptr inbounds nuw i8, ptr %3, i64 72
  %17 = getelementptr inbounds nuw i8, ptr %3, i64 80
  %18 = getelementptr inbounds nuw i8, ptr %3, i64 88
  br label %19

._crit_edge:                                      ; preds = %_ZN11colvarvalueD2Ev.exit, %2
  ret void

19:                                               ; preds = %.lr.ph, %_ZN11colvarvalueD2Ev.exit
  %20 = phi ptr [ %8, %.lr.ph ], [ %71, %_ZN11colvarvalueD2Ev.exit ]
  %.012 = phi i64 [ 0, %.lr.ph ], [ %69, %_ZN11colvarvalueD2Ev.exit ]
  %21 = getelementptr inbounds nuw ptr, ptr %20, i64 %.012
  %22 = load ptr, ptr %21, align 8, !tbaa !263
  %23 = getelementptr inbounds nuw i8, ptr %22, i64 600
  %24 = load double, ptr %23, align 8, !tbaa !169
  %25 = fmul double %24, 0x3F91DF46A2529D39
  %26 = call noundef double @sin(double noundef %25) #22, !tbaa !26
  %27 = fmul double %26, 0xBF91DF46A2529D39
  %28 = call noundef double @cos(double noundef %25) #22, !tbaa !26
  %29 = fmul double %28, 0x3F91DF46A2529D39
  call void @llvm.lifetime.start.p0(i64 168, ptr nonnull %3) #22
  call void @llvm.lifetime.start.p0(i64 8, ptr nonnull %4) #22
  %30 = shl i64 %.012, 1
  %31 = load ptr, ptr %9, align 8, !tbaa !201
  %32 = getelementptr inbounds nuw double, ptr %31, i64 %30
  %33 = load double, ptr %32, align 8, !tbaa !178
  %34 = or disjoint i64 %30, 1
  %35 = getelementptr inbounds nuw double, ptr %31, i64 %34
  %36 = load double, ptr %35, align 8, !tbaa !178
  %37 = fmul double %29, %36
  %38 = call double @llvm.fmuladd.f64(double %33, double %27, double %37)
  store double %38, ptr %4, align 8, !tbaa !178
  call void @_ZmlRKdRK11colvarvalue(ptr dead_on_unwind nonnull writable sret(%class.colvarvalue) align 8 %3, ptr noundef nonnull align 8 dereferenceable(8) %4, ptr noundef nonnull align 8 dereferenceable(168) %1)
  %39 = load ptr, ptr %22, align 8, !tbaa !14
  %40 = getelementptr inbounds nuw i8, ptr %39, i64 160
  %41 = load ptr, ptr %40, align 8
  invoke void %41(ptr noundef nonnull align 8 dereferenceable(1608) %22, ptr noundef nonnull align 8 dereferenceable(168) %3)
          to label %42 unwind label %77

42:                                               ; preds = %19
  %43 = load ptr, ptr %10, align 8, !tbaa !197
  %.not.i.i.i.i = icmp eq ptr %43, null
  br i1 %.not.i.i.i.i, label %_ZNSt6vectorIiSaIiEED2Ev.exit.i, label %44

44:                                               ; preds = %42
  %45 = load ptr, ptr %11, align 8, !tbaa !198
  %46 = ptrtoint ptr %45 to i64
  %47 = ptrtoint ptr %43 to i64
  %48 = sub i64 %46, %47
  call void @_ZdlPvm(ptr noundef nonnull %43, i64 noundef %48) #23
  br label %_ZNSt6vectorIiSaIiEED2Ev.exit.i

_ZNSt6vectorIiSaIiEED2Ev.exit.i:                  ; preds = %44, %42
  %49 = load ptr, ptr %12, align 8, !tbaa !197
  %.not.i.i.i1.i = icmp eq ptr %49, null
  br i1 %.not.i.i.i1.i, label %_ZNSt6vectorIiSaIiEED2Ev.exit2.i, label %50

50:                                               ; preds = %_ZNSt6vectorIiSaIiEED2Ev.exit.i
  %51 = load ptr, ptr %13, align 8, !tbaa !198
  %52 = ptrtoint ptr %51 to i64
  %53 = ptrtoint ptr %49 to i64
  %54 = sub i64 %52, %53
  call void @_ZdlPvm(ptr noundef nonnull %49, i64 noundef %54) #23
  br label %_ZNSt6vectorIiSaIiEED2Ev.exit2.i

_ZNSt6vectorIiSaIiEED2Ev.exit2.i:                 ; preds = %50, %_ZNSt6vectorIiSaIiEED2Ev.exit.i
  %55 = load ptr, ptr %14, align 8, !tbaa !199
  %.not.i.i.i3.i = icmp eq ptr %55, null
  br i1 %.not.i.i.i3.i, label %_ZNSt6vectorIN11colvarvalue4TypeESaIS1_EED2Ev.exit.i, label %56

56:                                               ; preds = %_ZNSt6vectorIiSaIiEED2Ev.exit2.i
  %57 = load ptr, ptr %15, align 8, !tbaa !200
  %58 = ptrtoint ptr %57 to i64
  %59 = ptrtoint ptr %55 to i64
  %60 = sub i64 %58, %59
  call void @_ZdlPvm(ptr noundef nonnull %55, i64 noundef %60) #23
  br label %_ZNSt6vectorIN11colvarvalue4TypeESaIS1_EED2Ev.exit.i

_ZNSt6vectorIN11colvarvalue4TypeESaIS1_EED2Ev.exit.i: ; preds = %56, %_ZNSt6vectorIiSaIiEED2Ev.exit2.i
  %61 = load ptr, ptr %16, align 8, !tbaa !201
  %62 = load ptr, ptr %17, align 8, !tbaa !202
  %.not.i.i.i4.i = icmp eq ptr %62, %61
  br i1 %.not.i.i.i4.i, label %_ZNSt6vectorIdSaIdEE5clearEv.exit.i.i, label %63

63:                                               ; preds = %_ZNSt6vectorIN11colvarvalue4TypeESaIS1_EED2Ev.exit.i
  store ptr %61, ptr %17, align 8, !tbaa !202
  br label %_ZNSt6vectorIdSaIdEE5clearEv.exit.i.i

_ZNSt6vectorIdSaIdEE5clearEv.exit.i.i:            ; preds = %63, %_ZNSt6vectorIN11colvarvalue4TypeESaIS1_EED2Ev.exit.i
  %.not.i.i.i.i.i = icmp eq ptr %61, null
  br i1 %.not.i.i.i.i.i, label %_ZN11colvarvalueD2Ev.exit, label %64

64:                                               ; preds = %_ZNSt6vectorIdSaIdEE5clearEv.exit.i.i
  %65 = load ptr, ptr %18, align 8, !tbaa !203
  %66 = ptrtoint ptr %65 to i64
  %67 = ptrtoint ptr %61 to i64
  %68 = sub i64 %66, %67
  call void @_ZdlPvm(ptr noundef nonnull %61, i64 noundef %68) #23
  br label %_ZN11colvarvalueD2Ev.exit

_ZN11colvarvalueD2Ev.exit:                        ; preds = %_ZNSt6vectorIdSaIdEE5clearEv.exit.i.i, %64
  call void @llvm.lifetime.end.p0(i64 8, ptr nonnull %4) #22
  call void @llvm.lifetime.end.p0(i64 168, ptr nonnull %3) #22
  %69 = add nuw i64 %.012, 1
  %70 = load ptr, ptr %6, align 8, !tbaa !259
  %71 = load ptr, ptr %5, align 8, !tbaa !265
  %72 = ptrtoint ptr %70 to i64
  %73 = ptrtoint ptr %71 to i64
  %74 = sub i64 %72, %73
  %75 = ashr exact i64 %74, 3
  %76 = icmp ult i64 %69, %75
  br i1 %76, label %19, label %._crit_edge, !llvm.loop !276

77:                                               ; preds = %19
  %78 = landingpad { ptr, i32 }
          cleanup
  call void @_ZN11colvarvalueD2Ev(ptr noundef nonnull align 8 dereferenceable(168) %3) #22
  call void @llvm.lifetime.end.p0(i64 8, ptr nonnull %4) #22
  call void @llvm.lifetime.end.p0(i64 168, ptr nonnull %3) #22
  resume { ptr, i32 } %78
}